Certificate:
    Data:
        Version: 3 (0x2)
        Serial Number: 1 (0x1)
        Signature Algorithm: sha256WithRSAEncryption
        Issuer: CN=devcert
        Validity
            Not Before: Apr 21 15:00:38 2020 GMT
            Not After : Jul 25 15:00:38 2022 GMT
        Subject: CN=localhost
        Subject Public Key Info:
            Public Key Algorithm: rsaEncryption
                RSA Public-Key: (2048 bit)
                Modulus:
                    00:b0:56:ce:ac:2e:fb:03:35:43:03:51:0b:09:3b:
                    2e:37:9f:05:83:95:37:fa:42:68:7e:dd:9a:df:d2:
                    18:29:83:f6:1b:3e:e2:30:bd:db:03:47:14:cf:9f:
                    d6:cf:d5:77:08:f7:e9:8f:65:1d:f2:7b:49:d2:4f:
                    57:43:5c:88:d3:a3:b0:d5:49:a9:29:b3:97:fe:89:
                    86:da:1a:4d:bd:47:1b:1c:16:b3:46:06:75:20:5d:
                    a5:e1:39:47:4b:5d:fb:ee:57:fe:71:b4:78:93:09:
                    5a:ac:f2:e9:cb:a0:e0:8c:3a:d8:6c:b5:7e:31:5f:
                    9e:df:03:f4:04:8c:e2:dd:3d:43:bc:5e:c8:6a:dc:
                    2f:f8:e2:89:b1:f3:07:32:d5:0d:98:9e:61:f8:70:
                    84:e2:81:77:e7:ec:0e:4b:05:92:cf:52:e0:2a:ac:
                    51:e7:83:d7:95:85:1e:95:0e:55:51:9c:3a:29:05:
                    dc:06:e9:a5:61:d8:b3:2c:d6:b3:79:e1:22:1a:20:
                    bf:6c:b9:06:ad:fc:70:ac:f6:71:bf:b3:81:74:32:
                    e1:0d:5b:5a:c4:b7:90:e5:4b:47:16:27:9c:f0:e2:
                    9b:e0:9b:74:00:6a:68:c8:9c:0d:f8:a1:ba:35:32:
                    a3:49:ea:e3:42:51:68:3a:80:0b:9d:e8:9d:38:b4:
                    2a:dd
                Exponent: 65537 (0x10001)
        X509v3 extensions:
            X509v3 Basic Constraints: critical
                CA:FALSE
            X509v3 Subject Key Identifier: 
                22:EC:16:A1:77:47:B7:0D:3F:62:E7:4C:AD:97:2C:0E:EE:54:A9:8A
            X509v3 Authority Key Identifier: 
                keyid:2F:1D:28:1A:F8:A4:65:B4:DE:05:03:02:E6:AB:53:E9:ED:07:5D:AC
                DirName:/CN=devcert
                serial:7E:A9:72:76:A1:F4:E7:DE:DC:4D:86:E6:FB:DA:E0:36:6F:E0:9E:5B

            X509v3 Key Usage: critical
                Digital Signature, Key Encipherment
            X509v3 Extended Key Usage: 
                TLS Web Server Authentication
            X509v3 Subject Alternative Name: 
                DNS:localhost, DNS:*.localhost
    Signature Algorithm: sha256WithRSAEncryption
         96:65:c7:c6:ab:7b:2f:95:2a:fb:a9:62:b3:70:49:cf:17:c4:
         4f:f7:d4:36:ee:31:88:c3:1d:94:d7:10:75:e3:a2:ec:7c:9d:
         db:13:06:ff:84:14:80:b5:ba:1e:5c:ed:53:f0:1e:d8:7c:f6:
         41:83:d8:83:8e:3e:bc:96:c2:64:85:98:c7:92:fe:12:62:91:
         7e:a1:c1:fd:1b:1c:cb:c3:65:9e:4a:3b:c0:f4:8f:27:28:c9:
         6c:8a:21:74:80:ab:65:18:00:d1:3c:86:0c:60:7d:bf:90:77:
         4c:ec:24:7a:8a:cd:e6:48:ab:78:65:d0:07:5e:0f:60:17:28:
         4a:1d:e6:58:32:c8:be:e7:e8:15:26:77:9e:00:34:7b:7c:da:
         94:7c:7d:df:6d:43:c9:94:d2:4e:9a:ee:98:89:c1:c1:ef:75:
         86:1a:68:41:11:51:a6:87:d8:79:29:25:bc:57:ec:f7:e6:17:
         ee:46:55:06:82:4f:48:10:d1:a8:3e:c0:45:2b:82:f3:28:7a:
         24:89:0e:92:79:08:79:01:9d:34:da:51:ef:1f:52:1c:03:5c:
         c5:c6:34:3b:f4:0d:27:06:2f:8e:64:f5:a2:d7:2a:69:84:6c:
         11:8f:07:90:99:47:d9:b8:04:4b:e8:43:5e:2e:0d:ee:fc:2b:
         eb:32:84:d5
-----BEGIN CERTIFICATE-----
MIIDaTCCAlGgAwIBAgIBATANBgkqhkiG9w0BAQsFADASMRAwDgYDVQQDDAdkZXZj
ZXJ0MB4XDTIwMDQyMTE1MDAzOFoXDTIyMDcyNTE1MDAzOFowFDESMBAGA1UEAwwJ
bG9jYWxob3N0MIIBIjANBgkqhkiG9w0BAQEFAAOCAQ8AMIIBCgKCAQEAsFbOrC77
AzVDA1ELCTsuN58Fg5U3+kJoft2a39IYKYP2Gz7iML3bA0cUz5/Wz9V3CPfpj2Ud
8ntJ0k9XQ1yI06Ow1UmpKbOX/omG2hpNvUcbHBazRgZ1IF2l4TlHS1377lf+cbR4
kwlarPLpy6DgjDrYbLV+MV+e3wP0BIzi3T1DvF7Iatwv+OKJsfMHMtUNmJ5h+HCE
4oF35+wOSwWSz1LgKqxR54PXlYUelQ5VUZw6KQXcBumlYdizLNazeeEiGiC/bLkG
rfxwrPZxv7OBdDLhDVtaxLeQ5UtHFiec8OKb4Jt0AGpoyJwN+KG6NTKjSerjQlFo
OoALneidOLQq3QIDAQABo4HHMIHEMAwGA1UdEwEB/wQCMAAwHQYDVR0OBBYEFCLs
FqF3R7cNP2LnTK2XLA7uVKmKME0GA1UdIwRGMESAFC8dKBr4pGW03gUDAuarU+nt
B12soRakFDASMRAwDgYDVQQDDAdkZXZjZXJ0ghR+qXJ2ofTn3txNhub72uA2b+Ce
WzAOBgNVHQ8BAf8EBAMCBaAwEwYDVR0lBAwwCgYIKwYBBQUHAwEwIQYDVR0RBBow
GIIJbG9jYWxob3N0ggsqLmxvY2FsaG9zdDANBgkqhkiG9w0BAQsFAAOCAQEAlmXH
xqt7L5Uq+6lis3BJzxfET/fUNu4xiMMdlNcQdeOi7Hyd2xMG/4QUgLW6HlztU/Ae
2Hz2QYPYg44+vJbCZIWYx5L+EmKRfqHB/Rscy8Nlnko7wPSPJyjJbIohdICrZRgA
0TyGDGB9v5B3TOwkeorN5kireGXQB14PYBcoSh3mWDLIvufoFSZ3ngA0e3zalHx9
321DyZTSTprumInBwe91hhpoQRFRpofYeSklvFfs9+YX7kZVBoJPSBDRqD7ARSuC
8yh6JIkOknkIeQGdNNpR7x9SHANcxcY0O/QNJwYvjmT1otcqaYRsEY8HkJlH2bgE
S+hDXi4N7vwr6zKE1Q==
-----END CERTIFICATE-----
